target datalayout = "e-m:e-p270:32:32-p271:32:32-p272:64:64-i64:64-i128:128-f80:128-n8:16:32:64-S128"
target triple = "x86_64-pc-linux-gnu"

%struct.ZDirectorStats = type { %struct.ZStatMutatorAllocRateStats, %struct.ZDirectorHeapStats, %struct.ZDirectorGenerationStats, %struct.ZDirectorGenerationStats }
%struct.ZStatMutatorAllocRateStats = type { double, double, double }
%struct.ZDirectorHeapStats = type { i64, i64, i32 }
%struct.ZDirectorGenerationStats = type { %struct.ZStatCycleStats, %struct.ZStatWorkersStats, %struct.ZWorkerResizeStats, %struct.ZStatHeapStats, %struct.ZDirectorGenerationGeneralStats }
%struct.ZStatCycleStats = type { i8, i64, i8, double, double, double, double, double, double, double, double, double, double }
%struct.ZStatWorkersStats = type { double, double }
%struct.ZWorkerResizeStats = type { i8, double, double, i32 }
%struct.ZStatHeapStats = type { i64, i64, i64 }
%struct.ZDirectorGenerationGeneralStats = type { i64, i32 }
%class.ZDriverRequest = type { i32, i32, i32 }
%struct.ZWorkerCounts = type { i32, i32 }

@_ZN5ZHeap5_heapE = external global ptr, align 8
@UseDynamicNumberOfGCThreads = external global i8, align 1
@ZYoungGCThreads = external global i32, align 4
@ZOldGCThreads = external global i32, align 4

; Function Attrs: mustprogress nounwind uwtable
define linkonce_odr hidden noundef i32 @_Z4MAX2IjET_S0_S0_(i32 noundef %0, i32 noundef %1) #1 comdat {
  %3 = alloca i32, align 4
  %4 = alloca i32, align 4
  store i32 %0, ptr %3, align 4
  store i32 %1, ptr %4, align 4
  %5 = load i32, ptr %3, align 4
  %6 = load i32, ptr %4, align 4
  %7 = icmp ugt i32 %5, %6
  br i1 %7, label %8, label %10

8:                                                ; preds = %2
  %9 = load i32, ptr %3, align 4
  br label %12

10:                                               ; preds = %2
  %11 = load i32, ptr %4, align 4
  br label %12

12:                                               ; preds = %10, %8
  %13 = phi i32 [ %9, %8 ], [ %11, %10 ]
  ret i32 %13
}

; Function Attrs: mustprogress nounwind uwtable
define linkonce_odr hidden noundef ptr @_ZN5ZHeap4heapEv() #1 comdat align 2 {
  %1 = load ptr, ptr @_ZN5ZHeap5_heapE, align 8
  ret ptr %1
}

; Function Attrs: mustprogress nounwind uwtable
define linkonce_odr hidden noundef i32 @_Z4MAX3IjET_S0_S0_S0_(i32 noundef %0, i32 noundef %1, i32 noundef %2) #1 comdat {
  %4 = alloca i32, align 4
  %5 = alloca i32, align 4
  %6 = alloca i32, align 4
  store i32 %0, ptr %4, align 4
  store i32 %1, ptr %5, align 4
  store i32 %2, ptr %6, align 4
  %7 = load i32, ptr %4, align 4
  %8 = load i32, ptr %5, align 4
  %9 = call noundef i32 @_Z4MAX2IjET_S0_S0_(i32 noundef %7, i32 noundef %8)
  %10 = load i32, ptr %6, align 4
  %11 = call noundef i32 @_Z4MAX2IjET_S0_S0_(i32 noundef %9, i32 noundef %10)
  ret i32 %11
}

; Function Attrs: mustprogress nounwind uwtable
define internal { i64, i32 } @_ZL39rule_hard_minor_allocation_rate_dynamicRK14ZDirectorStatsdd(ptr noundef nonnull align 8 dereferenceable(432) %0, double noundef %1, double noundef %2) #1 {
  %4 = alloca %class.ZDriverRequest, align 4
  %5 = alloca ptr, align 8
  %6 = alloca double, align 8
  %7 = alloca double, align 8
  %8 = alloca { i64, i32 }, align 8
  %9 = alloca { i64, i32 }, align 8
  store ptr %0, ptr %5, align 8
  store double %1, ptr %6, align 8
  store double %2, ptr %7, align 8
  %10 = load ptr, ptr %5, align 8
  %11 = call noundef ptr @_ZN5ZHeap4heapEv()
  %12 = call noundef i64 @_ZNK5ZHeap12max_capacityEv(ptr noundef nonnull align 64 dereferenceable(15937) %11)
  %13 = call { i64, i32 } @_ZL34rule_minor_allocation_rate_dynamicRK14ZDirectorStatsddbm(ptr noundef nonnull align 8 dereferenceable(432) %10, double noundef 0.000000e+00, double noundef 0.000000e+00, i1 noundef zeroext true, i64 noundef %12)
  store { i64, i32 } %13, ptr %8, align 8
  call void @llvm.memcpy.p0.p0.i64(ptr align 4 %4, ptr align 8 %8, i64 12, i1 false)
  call void @llvm.memcpy.p0.p0.i64(ptr align 8 %9, ptr align 4 %4, i64 12, i1 false)
  %14 = load { i64, i32 }, ptr %9, align 8
  ret { i64, i32 } %14
}

; Function Attrs: mustprogress nounwind uwtable
define internal { i64, i32 } @_ZL39rule_soft_minor_allocation_rate_dynamicRK14ZDirectorStatsdd(ptr noundef nonnull align 8 dereferenceable(432) %0, double noundef %1, double noundef %2) #1 {
  %4 = alloca %class.ZDriverRequest, align 4
  %5 = alloca ptr, align 8
  %6 = alloca double, align 8
  %7 = alloca double, align 8
  %8 = alloca { i64, i32 }, align 8
  %9 = alloca { i64, i32 }, align 8
  store ptr %0, ptr %5, align 8
  store double %1, ptr %6, align 8
  store double %2, ptr %7, align 8
  %10 = load ptr, ptr %5, align 8
  %11 = load ptr, ptr %5, align 8
  %12 = getelementptr inbounds %struct.ZDirectorStats, ptr %11, i32 0, i32 1
  %13 = getelementptr inbounds %struct.ZDirectorHeapStats, ptr %12, i32 0, i32 0
  %14 = load i64, ptr %13, align 8
  %15 = call { i64, i32 } @_ZL34rule_minor_allocation_rate_dynamicRK14ZDirectorStatsddbm(ptr noundef nonnull align 8 dereferenceable(432) %10, double noundef 0.000000e+00, double noundef 0.000000e+00, i1 noundef zeroext false, i64 noundef %14)
  store { i64, i32 } %15, ptr %8, align 8
  call void @llvm.memcpy.p0.p0.i64(ptr align 4 %4, ptr align 8 %8, i64 12, i1 false)
  call void @llvm.memcpy.p0.p0.i64(ptr align 8 %9, ptr align 4 %4, i64 12, i1 false)
  %16 = load { i64, i32 }, ptr %9, align 8
  ret { i64, i32 } %16
}

; Function Attrs: mustprogress nounwind uwtable
define internal i64 @_ZL15initial_workersRK14ZDirectorStats20ZWorkerSelectionType(ptr noundef nonnull align 8 dereferenceable(432) %0, i32 noundef %1) #1 {
  %3 = alloca %struct.ZWorkerCounts, align 4
  %4 = alloca ptr, align 8
  %5 = alloca i32, align 4
  %6 = alloca %class.ZDriverRequest, align 4
  %7 = alloca { i64, i32 }, align 8
  %8 = alloca %class.ZDriverRequest, align 4
  %9 = alloca { i64, i32 }, align 8
  %10 = alloca i32, align 4
  store ptr %0, ptr %4, align 8
  store i32 %1, ptr %5, align 4
  %11 = load i8, ptr @UseDynamicNumberOfGCThreads, align 1
  %12 = trunc i8 %11 to i1
  br i1 %12, label %18, label %13

13:                                               ; preds = %2
  %14 = getelementptr inbounds %struct.ZWorkerCounts, ptr %3, i32 0, i32 0
  %15 = load i32, ptr @ZYoungGCThreads, align 4
  store i32 %15, ptr %14, align 4
  %16 = getelementptr inbounds %struct.ZWorkerCounts, ptr %3, i32 0, i32 1
  %17 = load i32, ptr @ZOldGCThreads, align 4
  store i32 %17, ptr %16, align 4
  br label %30

18:                                               ; preds = %2
  %19 = load ptr, ptr %4, align 8
  %20 = call { i64, i32 } @_ZL39rule_soft_minor_allocation_rate_dynamicRK14ZDirectorStatsdd(ptr noundef nonnull align 8 dereferenceable(432) %19, double noundef 0.000000e+00, double noundef 0.000000e+00)
  store { i64, i32 } %20, ptr %7, align 8
  call void @llvm.memcpy.p0.p0.i64(ptr align 4 %6, ptr align 8 %7, i64 12, i1 false)
  %21 = load ptr, ptr %4, align 8
  %22 = call { i64, i32 } @_ZL39rule_hard_minor_allocation_rate_dynamicRK14ZDirectorStatsdd(ptr noundef nonnull align 8 dereferenceable(432) %21, double noundef 0.000000e+00, double noundef 0.000000e+00)
  store { i64, i32 } %22, ptr %9, align 8
  call void @llvm.memcpy.p0.p0.i64(ptr align 4 %8, ptr align 8 %9, i64 12, i1 false)
  %23 = call noundef i32 @_ZNK14ZDriverRequest14young_nworkersEv(ptr noundef nonnull align 4 dereferenceable(12) %6)
  %24 = call noundef i32 @_ZNK14ZDriverRequest14young_nworkersEv(ptr noundef nonnull align 4 dereferenceable(12) %8)
  %25 = call noundef i32 @_Z4MAX3IjET_S0_S0_S0_(i32 noundef 1, i32 noundef %23, i32 noundef %24)
  store i32 %25, ptr %10, align 4
  %26 = load ptr, ptr %4, align 8
  %27 = load i32, ptr %10, align 4
  %28 = load i32, ptr %5, align 4
  %29 = call i64 @_ZL21select_worker_threadsRK14ZDirectorStatsj20ZWorkerSelectionType(ptr noundef nonnull align 8 dereferenceable(432) %26, i32 noundef %27, i32 noundef %28)
  store i64 %29, ptr %3, align 4
  br label %30

30:                                               ; preds = %18, %13
  %31 = load i64, ptr %3, align 4
  ret i64 %31
}