; Function Attrs: mustprogress nounwind uwtable
define internal fastcc i64 @_ZL15initial_workersRK14ZDirectorStats20ZWorkerSelectionType(ptr nocapture noundef nonnull readonly align 8 dereferenceable(432) %0, i32 noundef %1) unnamed_addr #0 {
  %3 = alloca %class.ZDriverRequest, align 8
  %4 = alloca %class.ZDriverRequest, align 8
  %5 = load i8, ptr @UseDynamicNumberOfGCThreads, align 1
  %6 = trunc i8 %5 to i1
  br i1 %6, label %10, label %7

7:                                                ; preds = %2
  %8 = load i32, ptr @ZYoungGCThreads, align 4
  %9 = load i32, ptr @ZOldGCThreads, align 4
  br label %22

10:                                               ; preds = %2
  %11 = getelementptr inbounds i8, ptr %0, i64 24
  %12 = load i64, ptr %11, align 8
  %13 = tail call fastcc { i64, i32 } @_ZL34rule_minor_allocation_rate_dynamicRK14ZDirectorStatsddbm(ptr noundef nonnull readonly align 8 dereferenceable(432) %0, i1 noundef zeroext false, i64 noundef %12)
  %.fca.0.extract1 = extractvalue { i64, i32 } %13, 0
  %.fca.1.extract2 = extractvalue { i64, i32 } %13, 1
  store i64 %.fca.0.extract1, ptr %3, align 8
  %.sroa.24.0..sroa_idx = getelementptr inbounds i8, ptr %3, i64 8
  store i32 %.fca.1.extract2, ptr %.sroa.24.0..sroa_idx, align 8
  %14 = load ptr, ptr @_ZN5ZHeap5_heapE, align 8
  %15 = tail call noundef i64 @_ZNK5ZHeap12max_capacityEv(ptr noundef nonnull align 64 dereferenceable(15937) %14) #11
  %16 = tail call fastcc { i64, i32 } @_ZL34rule_minor_allocation_rate_dynamicRK14ZDirectorStatsddbm(ptr noundef nonnull readonly align 8 dereferenceable(432) %0, i1 noundef zeroext true, i64 noundef %15)
  %.fca.0.extract = extractvalue { i64, i32 } %16, 0
  %.fca.1.extract = extractvalue { i64, i32 } %16, 1
  store i64 %.fca.0.extract, ptr %4, align 8
  %.sroa.2.0..sroa_idx = getelementptr inbounds i8, ptr %4, i64 8
  store i32 %.fca.1.extract, ptr %.sroa.2.0..sroa_idx, align 8
  %17 = call noundef i32 @_ZNK14ZDriverRequest14young_nworkersEv(ptr noundef nonnull align 4 dereferenceable(12) %3) #11
  %18 = call noundef i32 @_ZNK14ZDriverRequest14young_nworkersEv(ptr noundef nonnull align 4 dereferenceable(12) %4) #11
  %19 = call i32 @llvm.umax.i32(i32 %17, i32 %18)
  %20 = call i32 @llvm.umax.i32(i32 %19, i32 1)
  %21 = call fastcc i64 @_ZL21select_worker_threadsRK14ZDirectorStatsj20ZWorkerSelectionType(ptr noundef nonnull align 8 dereferenceable(432) %0, i32 noundef %20, i32 noundef %1)
  %.sroa.08.0.extract.trunc = trunc i64 %21 to i32
  %.sroa.3.0.extract.shift = lshr i64 %21, 32
  %.sroa.3.0.extract.trunc = trunc nuw i64 %.sroa.3.0.extract.shift to i32
  br label %22

22:                                               ; preds = %10, %7
  %.sroa.08.0 = phi i32 [ %.sroa.08.0.extract.trunc, %10 ], [ %8, %7 ]
  %.sroa.3.0 = phi i32 [ %.sroa.3.0.extract.trunc, %10 ], [ %9, %7 ]
  %.sroa.3.0.insert.ext = zext i32 %.sroa.3.0 to i64
  %.sroa.3.0.insert.shift = shl nuw i64 %.sroa.3.0.insert.ext, 32
  %.sroa.08.0.insert.ext = zext i32 %.sroa.08.0 to i64
  %.sroa.08.0.insert.insert = or disjoint i64 %.sroa.3.0.insert.shift, %.sroa.08.0.insert.ext
  ret i64 %.sroa.08.0.insert.insert
}